target datalayout = "e-m:e-p270:32:32-p271:32:32-p272:64:64-i64:64-i128:128-f80:128-n8:16:32:64-S128"
target triple = "x86_64-pc-linux-gnu"

%"class.folly::MacAddress" = type { [8 x i8] }
%"struct.std::array" = type { [16 x i8] }

@.str.7 = private unnamed_addr constant [9 x i8] c"\FE\80\00\00\00\00\00\00\00", align 1

; Function Attrs: mustprogress nounwind uwtable
define linkonce_odr noundef ptr @_ZNSt14__array_traitsIhLm16EE6_S_ptrERA16_Kh(ptr noundef nonnull align 1 dereferenceable(16) %0) #3 comdat align 2 {
  %2 = alloca ptr, align 8
  store ptr %0, ptr %2, align 8, !tbaa !28
  %3 = load ptr, ptr %2, align 8, !tbaa !28
  %4 = getelementptr inbounds [16 x i8], ptr %3, i64 0, i64 0
  ret ptr %4
}

; Function Attrs: mustprogress nounwind willreturn memory(none) uwtable
define linkonce_odr noundef ptr @_ZNSt5arrayIhLm16EE4dataEv(ptr noundef nonnull align 1 dereferenceable(16) %0) #25 comdat align 2 {
  %2 = alloca ptr, align 8
  store ptr %0, ptr %2, align 8, !tbaa !157
  %3 = load ptr, ptr %2, align 8
  %4 = getelementptr inbounds nuw %"struct.std::array", ptr %3, i32 0, i32 0
  %5 = call noundef ptr @_ZNSt14__array_traitsIhLm16EE6_S_ptrERA16_Kh(ptr noundef nonnull align 1 dereferenceable(16) %4) #13
  ret ptr %5
}

; Function Attrs: mustprogress nounwind uwtable
define linkonce_odr noundef nonnull align 1 dereferenceable(1) ptr @_ZNSt14__array_traitsIhLm16EE6_S_refERA16_Khm(ptr noundef nonnull align 1 dereferenceable(16) %0, i64 noundef %1) #3 comdat align 2 {
  %3 = alloca ptr, align 8
  %4 = alloca i64, align 8
  store ptr %0, ptr %3, align 8, !tbaa !28
  store i64 %1, ptr %4, align 8, !tbaa !12
  %5 = load ptr, ptr %3, align 8, !tbaa !28
  %6 = load i64, ptr %4, align 8, !tbaa !12
  %7 = getelementptr inbounds nuw [16 x i8], ptr %5, i64 0, i64 %6
  ret ptr %7
}

; Function Attrs: mustprogress nounwind willreturn memory(none) uwtable
define linkonce_odr noundef ptr @_ZNSt5arrayIhLm16EE5beginEv(ptr noundef nonnull align 1 dereferenceable(16) %0) #25 comdat align 2 {
  %2 = alloca ptr, align 8
  store ptr %0, ptr %2, align 8, !tbaa !157
  %3 = load ptr, ptr %2, align 8
  %4 = call noundef ptr @_ZNSt5arrayIhLm16EE4dataEv(ptr noundef nonnull align 1 dereferenceable(16) %3) #31
  ret ptr %4
}

; Function Attrs: mustprogress nounwind uwtable
define linkonce_odr noundef nonnull align 1 dereferenceable(1) ptr @_ZNSt5arrayIhLm16EEixEm(ptr noundef nonnull align 1 dereferenceable(16) %0, i64 noundef %1) #3 comdat align 2 {
  %3 = alloca ptr, align 8
  %4 = alloca i64, align 8
  store ptr %0, ptr %3, align 8, !tbaa !157
  store i64 %1, ptr %4, align 8, !tbaa !12
  %5 = load ptr, ptr %3, align 8
  %6 = getelementptr inbounds nuw %"struct.std::array", ptr %5, i32 0, i32 0
  %7 = load i64, ptr %4, align 8, !tbaa !12
  %8 = call noundef nonnull align 1 dereferenceable(1) ptr @_ZNSt14__array_traitsIhLm16EE6_S_refERA16_Khm(ptr noundef nonnull align 1 dereferenceable(16) %6, i64 noundef %7) #13
  ret ptr %8
}

; Function Attrs: mustprogress nounwind uwtable
define linkonce_odr noundef nonnull align 1 dereferenceable(1) ptr @_ZNSt5arrayIhLm16EE5frontEv(ptr noundef nonnull align 1 dereferenceable(16) %0) #3 comdat align 2 {
  %2 = alloca ptr, align 8
  store ptr %0, ptr %2, align 8, !tbaa !157
  %3 = load ptr, ptr %2, align 8
  %4 = call noundef ptr @_ZNSt5arrayIhLm16EE5beginEv(ptr noundef nonnull align 1 dereferenceable(16) %3) #31
  ret ptr %4
}

; Function Attrs: mustprogress nounwind uwtable
define linkonce_odr noundef ptr @_ZNK5folly10MacAddress5bytesEv(ptr noundef nonnull align 1 dereferenceable(8) %0) #3 comdat align 2 {
  %2 = alloca ptr, align 8
  store ptr %0, ptr %2, align 8, !tbaa !162
  %3 = load ptr, ptr %2, align 8
  %4 = getelementptr inbounds nuw %"class.folly::MacAddress", ptr %3, i32 0, i32 0
  %5 = getelementptr inbounds [8 x i8], ptr %4, i64 0, i64 0
  %6 = getelementptr inbounds i8, ptr %5, i64 2
  ret ptr %6
}

; Function Attrs: mustprogress uwtable
define void @_ZN5folly11IPAddressV614AddressStorageC2ENS_10MacAddressE(ptr noundef nonnull align 4 dereferenceable(16) %0, i64 %1) unnamed_addr #0 align 2 {
  %3 = alloca %"class.folly::MacAddress", align 1
  %4 = alloca ptr, align 8
  %5 = alloca ptr, align 8
  %6 = getelementptr inbounds nuw %"class.folly::MacAddress", ptr %3, i32 0, i32 0
  store i64 %1, ptr %6, align 1
  store ptr %0, ptr %4, align 8, !tbaa !105
  %7 = load ptr, ptr %4, align 8
  call void @llvm.lifetime.start.p0(i64 8, ptr %5) #13
  %8 = call noundef ptr @_ZNK5folly10MacAddress5bytesEv(ptr noundef nonnull align 1 dereferenceable(8) %3)
  store ptr %8, ptr %5, align 8, !tbaa !28
  %9 = call noundef nonnull align 1 dereferenceable(1) ptr @_ZNSt5arrayIhLm16EE5frontEv(ptr noundef nonnull align 1 dereferenceable(16) %7) #13
  call void @llvm.memcpy.p0.p0.i64(ptr align 1 %9, ptr align 1 @.str.7, i64 8, i1 false)
  %10 = load ptr, ptr %5, align 8, !tbaa !28
  %11 = getelementptr inbounds i8, ptr %10, i64 0
  %12 = load i8, ptr %11, align 1, !tbaa !22
  %13 = zext i8 %12 to i32
  %14 = xor i32 %13, 2
  %15 = trunc i32 %14 to i8
  %16 = call noundef nonnull align 1 dereferenceable(1) ptr @_ZNSt5arrayIhLm16EEixEm(ptr noundef nonnull align 1 dereferenceable(16) %7, i64 noundef 8) #13
  store i8 %15, ptr %16, align 1, !tbaa !22
  %17 = load ptr, ptr %5, align 8, !tbaa !28
  %18 = getelementptr inbounds i8, ptr %17, i64 1
  %19 = load i8, ptr %18, align 1, !tbaa !22
  %20 = call noundef nonnull align 1 dereferenceable(1) ptr @_ZNSt5arrayIhLm16EEixEm(ptr noundef nonnull align 1 dereferenceable(16) %7, i64 noundef 9) #13
  store i8 %19, ptr %20, align 1, !tbaa !22
  %21 = load ptr, ptr %5, align 8, !tbaa !28
  %22 = getelementptr inbounds i8, ptr %21, i64 2
  %23 = load i8, ptr %22, align 1, !tbaa !22
  %24 = call noundef nonnull align 1 dereferenceable(1) ptr @_ZNSt5arrayIhLm16EEixEm(ptr noundef nonnull align 1 dereferenceable(16) %7, i64 noundef 10) #13
  store i8 %23, ptr %24, align 1, !tbaa !22
  %25 = call noundef nonnull align 1 dereferenceable(1) ptr @_ZNSt5arrayIhLm16EEixEm(ptr noundef nonnull align 1 dereferenceable(16) %7, i64 noundef 11) #13
  store i8 -1, ptr %25, align 1, !tbaa !22
  %26 = call noundef nonnull align 1 dereferenceable(1) ptr @_ZNSt5arrayIhLm16EEixEm(ptr noundef nonnull align 1 dereferenceable(16) %7, i64 noundef 12) #13
  store i8 -2, ptr %26, align 1, !tbaa !22
  %27 = load ptr, ptr %5, align 8, !tbaa !28
  %28 = getelementptr inbounds i8, ptr %27, i64 3
  %29 = load i8, ptr %28, align 1, !tbaa !22
  %30 = call noundef nonnull align 1 dereferenceable(1) ptr @_ZNSt5arrayIhLm16EEixEm(ptr noundef nonnull align 1 dereferenceable(16) %7, i64 noundef 13) #13
  store i8 %29, ptr %30, align 1, !tbaa !22
  %31 = load ptr, ptr %5, align 8, !tbaa !28
  %32 = getelementptr inbounds i8, ptr %31, i64 4
  %33 = load i8, ptr %32, align 1, !tbaa !22
  %34 = call noundef nonnull align 1 dereferenceable(1) ptr @_ZNSt5arrayIhLm16EEixEm(ptr noundef nonnull align 1 dereferenceable(16) %7, i64 noundef 14) #13
  store i8 %33, ptr %34, align 1, !tbaa !22
  %35 = load ptr, ptr %5, align 8, !tbaa !28
  %36 = getelementptr inbounds i8, ptr %35, i64 5
  %37 = load i8, ptr %36, align 1, !tbaa !22
  %38 = call noundef nonnull align 1 dereferenceable(1) ptr @_ZNSt5arrayIhLm16EEixEm(ptr noundef nonnull align 1 dereferenceable(16) %7, i64 noundef 15) #13
  store i8 %37, ptr %38, align 1, !tbaa !22
  call void @llvm.lifetime.end.p0(i64 8, ptr %5) #13
  ret void
}